; Function Attrs: mustprogress nofree norecurse nosync nounwind willreturn memory(argmem: readwrite) uwtable
define void @_ZN13gmx_hw_info_tC2ESt10unique_ptrIN3gmx7CpuInfoESt14default_deleteIS2_EES0_INS1_16HardwareTopologyES3_IS6_EE(ptr noundef nonnull writeonly align 8 captures(none) dereferenceable(136) initializes((0, 40), (112, 136)) %0, ptr noundef captures(none) %1, ptr noundef captures(none) %2) unnamed_addr #0 align 2 {
  %4 = load i64, ptr %1, align 8, !tbaa !4
  store i64 %4, ptr %0, align 8, !tbaa !4
  store ptr null, ptr %1, align 8, !tbaa !4
  %5 = getelementptr inbounds nuw i8, ptr %0, i64 8
  %6 = load i64, ptr %2, align 8, !tbaa !9
  store i64 %6, ptr %5, align 8, !tbaa !9
  store ptr null, ptr %2, align 8, !tbaa !9
  %7 = getelementptr inbounds nuw i8, ptr %0, i64 16
  tail call void @llvm.memset.p0.i64(ptr noundef nonnull align 8 dereferenceable(24) %7, i8 0, i64 24, i1 false)
  %8 = getelementptr inbounds nuw i8, ptr %0, i64 112
  tail call void @llvm.memset.p0.i64(ptr noundef nonnull align 8 dereferenceable(24) %8, i8 0, i64 24, i1 false)
  ret void
}